; Function Attrs: mustprogress nounwind uwtable
define hidden void @_ZN12LiveRangeMap12reset_uf_mapEj(ptr noundef nonnull align 8 dereferenceable(56) %0, i32 noundef %1) local_unnamed_addr #2 align 2 {
  store i32 %1, ptr %0, align 8
  %3 = getelementptr inbounds i8, ptr %0, i64 8
  %4 = load i32, ptr %3, align 8
  %.not.i = icmp sgt i32 %4, %1
  br i1 %.not.i, label %_ZN26GrowableArrayWithAllocatorIj13GrowableArrayIjEE11at_put_growEiRKjS4_.exit, label %5

5:                                                ; preds = %2
  %6 = getelementptr inbounds i8, ptr %0, i64 12
  %7 = load i32, ptr %6, align 4
  %.not12.i = icmp sgt i32 %7, %1
  br i1 %.not12.i, label %18, label %8

8:                                                ; preds = %5
  %9 = add nsw i32 %1, 1
  %10 = icmp sgt i32 %1, -1
  %11 = xor i32 %1, -2147483648
  %12 = and i32 %11, %9
  %13 = icmp eq i32 %12, 0
  %14 = and i1 %10, %13
  %15 = tail call range(i32 0, 33) i32 @llvm.ctlz.i32(i32 %9, i1 true)
  %16 = sub nuw nsw i32 32, %15
  %17 = shl nuw i32 1, %16
  %.0.i.i.i.i = select i1 %14, i32 %9, i32 %17
  tail call void @_ZN26GrowableArrayWithAllocatorIj13GrowableArrayIjEE9expand_toEi(ptr noundef nonnull align 8 dereferenceable(16) %3, i32 noundef %.0.i.i.i.i)
  %.pre.i = load i32, ptr %3, align 8
  br label %18

18:                                               ; preds = %8, %5
  %19 = phi i32 [ %.pre.i, %8 ], [ %4, %5 ]
  %20 = icmp slt i32 %19, %1
  br i1 %20, label %.lr.ph.i, label %._crit_edge.i

.lr.ph.i:                                         ; preds = %18
  %21 = getelementptr inbounds i8, ptr %0, i64 16
  %22 = sext i32 %19 to i64
  %wide.trip.count.i = sext i32 %1 to i64
  br label %23

23:                                               ; preds = %23, %.lr.ph.i
  %indvars.iv.i = phi i64 [ %22, %.lr.ph.i ], [ %indvars.iv.next.i, %23 ]
  %24 = load ptr, ptr %21, align 8
  %25 = getelementptr inbounds i32, ptr %24, i64 %indvars.iv.i
  store i32 0, ptr %25, align 4
  %indvars.iv.next.i = add nsw i64 %indvars.iv.i, 1
  %exitcond.not.i = icmp eq i64 %indvars.iv.next.i, %wide.trip.count.i
  br i1 %exitcond.not.i, label %._crit_edge.i, label %23, !llvm.loop !9

._crit_edge.i:                                    ; preds = %23, %18
  %26 = add nsw i32 %1, 1
  store i32 %26, ptr %3, align 8
  br label %_ZN26GrowableArrayWithAllocatorIj13GrowableArrayIjEE11at_put_growEiRKjS4_.exit

_ZN26GrowableArrayWithAllocatorIj13GrowableArrayIjEE11at_put_growEiRKjS4_.exit: ; preds = %2, %._crit_edge.i
  %27 = getelementptr inbounds i8, ptr %0, i64 16
  %28 = load ptr, ptr %27, align 8
  %29 = sext i32 %1 to i64
  %30 = getelementptr inbounds i32, ptr %28, i64 %29
  store i32 0, ptr %30, align 4
  %31 = load i32, ptr %0, align 8
  %.not = icmp eq i32 %31, 0
  br i1 %.not, label %._crit_edge, label %.lr.ph

.lr.ph:                                           ; preds = %_ZN26GrowableArrayWithAllocatorIj13GrowableArrayIjEE11at_put_growEiRKjS4_.exit, %.lr.ph
  %storemerge4 = phi i32 [ %35, %.lr.ph ], [ 0, %_ZN26GrowableArrayWithAllocatorIj13GrowableArrayIjEE11at_put_growEiRKjS4_.exit ]
  %32 = load ptr, ptr %27, align 8
  %33 = sext i32 %storemerge4 to i64
  %34 = getelementptr inbounds i32, ptr %32, i64 %33
  store i32 %storemerge4, ptr %34, align 4
  %35 = add nuw i32 %storemerge4, 1
  %36 = load i32, ptr %0, align 8
  %37 = icmp ult i32 %35, %36
  br i1 %37, label %.lr.ph, label %._crit_edge, !llvm.loop !10

._crit_edge:                                      ; preds = %.lr.ph, %_ZN26GrowableArrayWithAllocatorIj13GrowableArrayIjEE11at_put_growEiRKjS4_.exit
  ret void
}